target datalayout = "e-m:e-p270:32:32-p271:32:32-p272:64:64-i64:64-i128:128-f80:128-n8:16:32:64-S128"
target triple = "x86_64-pc-linux-gnu"

%struct.qlog_st = type { %struct.qlog_trace_info_st, ptr, [1 x i64], i32, ptr, ptr, ptr, %struct.OSSL_TIME, %struct.OSSL_TIME, %struct.ossl_json_enc_st, i32, i32 }
%struct.qlog_trace_info_st = type { %struct.quic_conn_id_st, ptr, ptr, ptr, i32, ptr, ptr, i64, ptr }
%struct.quic_conn_id_st = type { i8, [20 x i8] }
%struct.OSSL_TIME = type { i64 }
%struct.ossl_json_enc_st = type { i32, i8, i8, i8, ptr, i8, [16 x i8], %struct.json_write_buf, i64, i64 }
%struct.json_write_buf = type { ptr, ptr, i64, i64 }

; Function Attrs: inlinehint nounwind uwtable
define internal i32 @bit_get(ptr noundef %0, i32 noundef %1) #5 {
  %3 = alloca ptr, align 8
  %4 = alloca i32, align 4
  store ptr %0, ptr %3, align 8, !tbaa !50
  store i32 %1, ptr %4, align 4, !tbaa !45
  %5 = load ptr, ptr %3, align 8, !tbaa !50
  %6 = load i32, ptr %4, align 4, !tbaa !45
  %7 = zext i32 %6 to i64
  %8 = udiv i64 %7, 64
  %9 = getelementptr inbounds nuw i64, ptr %5, i64 %8
  %10 = load i64, ptr %9, align 8, !tbaa !40
  %11 = load i32, ptr %4, align 4, !tbaa !45
  %12 = zext i32 %11 to i64
  %13 = urem i64 %12, 64
  %14 = shl i64 1, %13
  %15 = and i64 %10, %14
  %16 = trunc i64 %15 to i32
  ret i32 %16
}

; Function Attrs: nounwind uwtable
define i32 @ossl_qlog_enabled(ptr noundef %0, i32 noundef %1) #0 {
  %3 = alloca i32, align 4
  %4 = alloca ptr, align 8
  %5 = alloca i32, align 4
  store ptr %0, ptr %4, align 8, !tbaa !8
  store i32 %1, ptr %5, align 4, !tbaa !45
  %6 = load ptr, ptr %4, align 8, !tbaa !8
  %7 = icmp eq ptr %6, null
  br i1 %7, label %8, label %9

8:                                                ; preds = %2
  store i32 0, ptr %3, align 4
  br label %17

9:                                                ; preds = %2
  %10 = load ptr, ptr %4, align 8, !tbaa !8
  %11 = getelementptr inbounds nuw %struct.qlog_st, ptr %10, i32 0, i32 2
  %12 = getelementptr inbounds [1 x i64], ptr %11, i64 0, i64 0
  %13 = load i32, ptr %5, align 4, !tbaa !45
  %14 = call i32 @bit_get(ptr noundef %12, i32 noundef %13)
  %15 = icmp ne i32 %14, 0
  %16 = zext i1 %15 to i32
  store i32 %16, ptr %3, align 4
  br label %17

17:                                               ; preds = %9, %8
  %18 = load i32, ptr %3, align 4
  ret i32 %18
}