; Function Attrs: mustprogress nofree norecurse nosync nounwind willreturn memory(argmem: read) uwtable
define range(i32 0, 2) i32 @ossl_qlog_enabled(ptr noundef readonly captures(address_is_null) %0, i32 noundef %1) local_unnamed_addr #6 {
  %3 = icmp eq ptr %0, null
  br i1 %3, label %16, label %4

4:                                                ; preds = %2
  %5 = getelementptr inbounds nuw i8, ptr %0, i64 96
  %6 = zext i32 %1 to i64
  %7 = lshr i64 %6, 6
  %8 = getelementptr inbounds nuw i64, ptr %5, i64 %7
  %9 = load i64, ptr %8, align 8, !tbaa !43
  %10 = and i64 %6, 63
  %11 = shl nuw i64 1, %10
  %12 = and i64 %11, 4294967295
  %13 = and i64 %12, %9
  %14 = icmp ne i64 %13, 0
  %15 = zext i1 %14 to i32
  br label %16

16:                                               ; preds = %2, %4
  %.0 = phi i32 [ %15, %4 ], [ 0, %2 ]
  ret i32 %.0
}